target datalayout = "e-m:e-p270:32:32-p271:32:32-p272:64:64-i64:64-i128:128-f80:128-n8:16:32:64-S128"
target triple = "x86_64-pc-linux-gnu"

%"class.std::optional" = type { %"struct.std::_Optional_base" }
%"struct.std::_Optional_base" = type { %"struct.std::_Optional_payload" }
%"struct.std::_Optional_payload" = type { %"struct.std::_Optional_payload_base.base", [7 x i8] }
%"struct.std::_Optional_payload_base.base" = type <{ %"union.std::_Optional_payload_base<const Luau::Type *>::_Storage", i8 }>
%"union.std::_Optional_payload_base<const Luau::Type *>::_Storage" = type { ptr }
%"class.std::__cxx11::basic_string" = type { %"struct.std::__cxx11::basic_string<char>::_Alloc_hider", i64, %union.anon }
%"struct.std::__cxx11::basic_string<char>::_Alloc_hider" = type { ptr }
%union.anon = type { i64, [8 x i8] }
%"struct.Luau::TableType" = type { %"class.std::map", %"class.std::optional.43", i32, %"struct.Luau::TypeLevel", ptr, %"class.std::optional.2", %"class.std::optional.2", %"class.std::vector", %"class.std::vector.53", %"class.std::__cxx11::basic_string", %"struct.Luau::Location", %"class.std::optional", %"class.std::vector.38", %"class.std::optional", i64 }
%"class.std::map" = type { %"class.std::_Rb_tree" }
%"class.std::_Rb_tree" = type { %"struct.std::_Rb_tree<std::__cxx11::basic_string<char>, std::pair<const std::__cxx11::basic_string<char>, Luau::Property>, std::_Select1st<std::pair<const std::__cxx11::basic_string<char>, Luau::Property>>, std::less<std::__cxx11::basic_string<char>>>::_Rb_tree_impl" }
%"struct.std::_Rb_tree<std::__cxx11::basic_string<char>, std::pair<const std::__cxx11::basic_string<char>, Luau::Property>, std::_Select1st<std::pair<const std::__cxx11::basic_string<char>, Luau::Property>>, std::less<std::__cxx11::basic_string<char>>>::_Rb_tree_impl" = type { [8 x i8], %"struct.std::_Rb_tree_header" }
%"struct.std::_Rb_tree_header" = type { %"struct.std::_Rb_tree_node_base", i64 }
%"struct.std::_Rb_tree_node_base" = type { i32, ptr, ptr, ptr }
%"class.std::optional.43" = type { %"struct.std::_Optional_base.44" }
%"struct.std::_Optional_base.44" = type { %"struct.std::_Optional_payload.46" }
%"struct.std::_Optional_payload.46" = type { %"struct.std::_Optional_payload_base.base.48", [7 x i8] }
%"struct.std::_Optional_payload_base.base.48" = type <{ %"union.std::_Optional_payload_base<Luau::TableIndexer>::_Storage", i8 }>
%"union.std::_Optional_payload_base<Luau::TableIndexer>::_Storage" = type { %"struct.Luau::TableIndexer" }
%"struct.Luau::TableIndexer" = type { ptr, ptr }
%"struct.Luau::TypeLevel" = type { i32, i32 }
%"class.std::optional.2" = type { %"struct.std::_Optional_base.3" }
%"struct.std::_Optional_base.3" = type { %"struct.std::_Optional_payload.5" }
%"struct.std::_Optional_payload.5" = type { %"struct.std::_Optional_payload.base.9", [7 x i8] }
%"struct.std::_Optional_payload.base.9" = type { %"struct.std::_Optional_payload_base.base.8" }
%"struct.std::_Optional_payload_base.base.8" = type <{ %"union.std::_Optional_payload_base<std::__cxx11::basic_string<char>>::_Storage", i8 }>
%"union.std::_Optional_payload_base<std::__cxx11::basic_string<char>>::_Storage" = type { %"class.std::__cxx11::basic_string" }
%"class.std::vector" = type { %"struct.std::_Vector_base" }
%"struct.std::_Vector_base" = type { %"struct.std::_Vector_base<const Luau::Type *, std::allocator<const Luau::Type *>>::_Vector_impl" }
%"struct.std::_Vector_base<const Luau::Type *, std::allocator<const Luau::Type *>>::_Vector_impl" = type { %"struct.std::_Vector_base<const Luau::Type *, std::allocator<const Luau::Type *>>::_Vector_impl_data" }
%"struct.std::_Vector_base<const Luau::Type *, std::allocator<const Luau::Type *>>::_Vector_impl_data" = type { ptr, ptr, ptr }
%"class.std::vector.53" = type { %"struct.std::_Vector_base.54" }
%"struct.std::_Vector_base.54" = type { %"struct.std::_Vector_base<const Luau::TypePackVar *, std::allocator<const Luau::TypePackVar *>>::_Vector_impl" }
%"struct.std::_Vector_base<const Luau::TypePackVar *, std::allocator<const Luau::TypePackVar *>>::_Vector_impl" = type { %"struct.std::_Vector_base<const Luau::TypePackVar *, std::allocator<const Luau::TypePackVar *>>::_Vector_impl_data" }
%"struct.std::_Vector_base<const Luau::TypePackVar *, std::allocator<const Luau::TypePackVar *>>::_Vector_impl_data" = type { ptr, ptr, ptr }
%"struct.Luau::Location" = type { %"struct.Luau::Position", %"struct.Luau::Position" }
%"struct.Luau::Position" = type { i32, i32 }
%"class.std::vector.38" = type { %"struct.std::_Vector_base.39" }
%"struct.std::_Vector_base.39" = type { %"struct.std::_Vector_base<std::__cxx11::basic_string<char>, std::allocator<std::__cxx11::basic_string<char>>>::_Vector_impl" }
%"struct.std::_Vector_base<std::__cxx11::basic_string<char>, std::allocator<std::__cxx11::basic_string<char>>>::_Vector_impl" = type { %"struct.std::_Vector_base<std::__cxx11::basic_string<char>, std::allocator<std::__cxx11::basic_string<char>>>::_Vector_impl_data" }
%"struct.std::_Vector_base<std::__cxx11::basic_string<char>, std::allocator<std::__cxx11::basic_string<char>>>::_Vector_impl_data" = type { ptr, ptr, ptr }
%"struct.Luau::Type" = type { %"class.Luau::Variant.113", i8, [7 x i8], %"class.std::optional.2", ptr }
%"class.Luau::Variant.113" = type { i32, [4 x i8], [336 x i8] }
%"struct.Luau::MetatableType" = type { ptr, ptr, %"class.std::optional.2" }
%"struct.std::_Optional_payload_base.7" = type <{ %"union.std::_Optional_payload_base<std::__cxx11::basic_string<char>>::_Storage", i8, [7 x i8] }>

; Function Attrs: mustprogress nounwind uwtable
define linkonce_odr dso_local noundef ptr @_ZNK4Luau7VariantIJNS_9Unifiable5BoundIPKNS_4TypeEEENS1_5ErrorIS5_EENS_8FreeTypeENS_11GenericTypeENS_13PrimitiveTypeENS_13SingletonTypeENS_11BlockedTypeENS_20PendingExpansionTypeENS_12FunctionTypeENS_9TableTypeENS_13MetatableTypeENS_9ClassTypeENS_7AnyTypeENS_9UnionTypeENS_16IntersectionTypeENS_8LazyTypeENS_11UnknownTypeENS_9NeverTypeENS_12NegationTypeENS_12NoRefineTypeENS_24TypeFunctionInstanceTypeEEE6get_ifISG_EEPKT_v(ptr noundef nonnull align 8 dereferenceable(344) %0) #2 comdat align 2 {
  %2 = alloca ptr, align 8
  %3 = alloca i32, align 4
  store ptr %0, ptr %2, align 8, !tbaa !337
  %4 = load ptr, ptr %2, align 8
  call void @llvm.lifetime.start.p0(i64 4, ptr %3) #20
  store i32 9, ptr %3, align 4, !tbaa !4
  %5 = getelementptr inbounds nuw %"class.Luau::Variant.113", ptr %4, i32 0, i32 0
  %6 = load i32, ptr %5, align 8, !tbaa !339
  %7 = icmp eq i32 9, %6
  br i1 %7, label %8, label %10

8:                                                ; preds = %1
  %9 = getelementptr inbounds nuw %"class.Luau::Variant.113", ptr %4, i32 0, i32 2
  br label %11

10:                                               ; preds = %1
  br label %11

11:                                               ; preds = %10, %8
  %12 = phi ptr [ %9, %8 ], [ null, %10 ]
  call void @llvm.lifetime.end.p0(i64 4, ptr %3) #20
  ret ptr %12
}

; Function Attrs: mustprogress nounwind uwtable
define linkonce_odr dso_local noundef nonnull align 8 dereferenceable(32) ptr @_ZNKSt22_Optional_payload_baseINSt7__cxx1112basic_stringIcSt11char_traitsIcESaIcEEEE6_M_getEv(ptr noundef nonnull align 8 dereferenceable(33) %0) #2 comdat align 2 {
  %2 = alloca ptr, align 8
  store ptr %0, ptr %2, align 8, !tbaa !605
  %3 = load ptr, ptr %2, align 8
  %4 = getelementptr inbounds nuw %"struct.std::_Optional_payload_base.7", ptr %3, i32 0, i32 0
  ret ptr %4
}

; Function Attrs: mustprogress nounwind uwtable
define linkonce_odr dso_local noundef ptr @_ZNK4Luau7VariantIJNS_9Unifiable5BoundIPKNS_4TypeEEENS1_5ErrorIS5_EENS_8FreeTypeENS_11GenericTypeENS_13PrimitiveTypeENS_13SingletonTypeENS_11BlockedTypeENS_20PendingExpansionTypeENS_12FunctionTypeENS_9TableTypeENS_13MetatableTypeENS_9ClassTypeENS_7AnyTypeENS_9UnionTypeENS_16IntersectionTypeENS_8LazyTypeENS_11UnknownTypeENS_9NeverTypeENS_12NegationTypeENS_12NoRefineTypeENS_24TypeFunctionInstanceTypeEEE6get_ifISH_EEPKT_v(ptr noundef nonnull align 8 dereferenceable(344) %0) #2 comdat align 2 {
  %2 = alloca ptr, align 8
  %3 = alloca i32, align 4
  store ptr %0, ptr %2, align 8, !tbaa !337
  %4 = load ptr, ptr %2, align 8
  call void @llvm.lifetime.start.p0(i64 4, ptr %3) #20
  store i32 10, ptr %3, align 4, !tbaa !4
  %5 = getelementptr inbounds nuw %"class.Luau::Variant.113", ptr %4, i32 0, i32 0
  %6 = load i32, ptr %5, align 8, !tbaa !339
  %7 = icmp eq i32 10, %6
  br i1 %7, label %8, label %10

8:                                                ; preds = %1
  %9 = getelementptr inbounds nuw %"class.Luau::Variant.113", ptr %4, i32 0, i32 2
  br label %11

10:                                               ; preds = %1
  br label %11

11:                                               ; preds = %10, %8
  %12 = phi ptr [ %9, %8 ], [ null, %10 ]
  call void @llvm.lifetime.end.p0(i64 4, ptr %3) #20
  ret ptr %12
}

; Function Attrs: mustprogress uwtable
define linkonce_odr dso_local noundef ptr @_ZN4Luau6get_ifINS_9TableTypeEJNS_9Unifiable5BoundIPKNS_4TypeEEENS2_5ErrorIS6_EENS_8FreeTypeENS_11GenericTypeENS_13PrimitiveTypeENS_13SingletonTypeENS_11BlockedTypeENS_20PendingExpansionTypeENS_12FunctionTypeES1_NS_13MetatableTypeENS_9ClassTypeENS_7AnyTypeENS_9UnionTypeENS_16IntersectionTypeENS_8LazyTypeENS_11UnknownTypeENS_9NeverTypeENS_12NegationTypeENS_12NoRefineTypeENS_24TypeFunctionInstanceTypeEEEEPKT_PKNS_7VariantIJDpT0_EEE(ptr noundef %0) #3 comdat {
  %2 = alloca ptr, align 8
  store ptr %0, ptr %2, align 8, !tbaa !337
  %3 = load ptr, ptr %2, align 8, !tbaa !337
  %4 = icmp ne ptr %3, null
  br i1 %4, label %5, label %8

5:                                                ; preds = %1
  %6 = load ptr, ptr %2, align 8, !tbaa !337
  %7 = call noundef ptr @_ZNK4Luau7VariantIJNS_9Unifiable5BoundIPKNS_4TypeEEENS1_5ErrorIS5_EENS_8FreeTypeENS_11GenericTypeENS_13PrimitiveTypeENS_13SingletonTypeENS_11BlockedTypeENS_20PendingExpansionTypeENS_12FunctionTypeENS_9TableTypeENS_13MetatableTypeENS_9ClassTypeENS_7AnyTypeENS_9UnionTypeENS_16IntersectionTypeENS_8LazyTypeENS_11UnknownTypeENS_9NeverTypeENS_12NegationTypeENS_12NoRefineTypeENS_24TypeFunctionInstanceTypeEEE6get_ifISG_EEPKT_v(ptr noundef nonnull align 8 dereferenceable(344) %6)
  br label %9

8:                                                ; preds = %1
  br label %9

9:                                                ; preds = %8, %5
  %10 = phi ptr [ %7, %5 ], [ null, %8 ]
  ret ptr %10
}

; Function Attrs: mustprogress nounwind uwtable
define linkonce_odr dso_local noundef nonnull align 8 dereferenceable(32) ptr @_ZNKSt19_Optional_base_implINSt7__cxx1112basic_stringIcSt11char_traitsIcESaIcEEESt14_Optional_baseIS5_Lb0ELb0EEE6_M_getEv(ptr noundef nonnull align 1 dereferenceable(1) %0) #2 comdat align 2 {
  %2 = alloca ptr, align 8
  store ptr %0, ptr %2, align 8, !tbaa !602
  %3 = load ptr, ptr %2, align 8
  br label %4

4:                                                ; preds = %1
  br label %5

5:                                                ; preds = %4
  br label %6

6:                                                ; preds = %5
  %7 = getelementptr inbounds nuw %"struct.std::_Optional_base.3", ptr %3, i32 0, i32 0
  %8 = call noundef nonnull align 8 dereferenceable(32) ptr @_ZNKSt22_Optional_payload_baseINSt7__cxx1112basic_stringIcSt11char_traitsIcESaIcEEEE6_M_getEv(ptr noundef nonnull align 8 dereferenceable(33) %7) #20
  ret ptr %8
}

; Function Attrs: mustprogress nounwind uwtable
define linkonce_odr dso_local noundef zeroext i1 @_ZNKSt19_Optional_base_implINSt7__cxx1112basic_stringIcSt11char_traitsIcESaIcEEESt14_Optional_baseIS5_Lb0ELb0EEE13_M_is_engagedEv(ptr noundef nonnull align 1 dereferenceable(1) %0) #2 comdat align 2 {
  %2 = alloca ptr, align 8
  store ptr %0, ptr %2, align 8, !tbaa !602
  %3 = load ptr, ptr %2, align 8
  %4 = getelementptr inbounds nuw %"struct.std::_Optional_base.3", ptr %3, i32 0, i32 0
  %5 = getelementptr inbounds nuw %"struct.std::_Optional_payload_base.7", ptr %4, i32 0, i32 1
  %6 = load i8, ptr %5, align 8, !tbaa !604, !range !17, !noundef !18
  %7 = trunc i8 %6 to i1
  ret i1 %7
}

; Function Attrs: mustprogress uwtable
define linkonce_odr dso_local noundef ptr @_ZN4Luau6get_ifINS_13MetatableTypeEJNS_9Unifiable5BoundIPKNS_4TypeEEENS2_5ErrorIS6_EENS_8FreeTypeENS_11GenericTypeENS_13PrimitiveTypeENS_13SingletonTypeENS_11BlockedTypeENS_20PendingExpansionTypeENS_12FunctionTypeENS_9TableTypeES1_NS_9ClassTypeENS_7AnyTypeENS_9UnionTypeENS_16IntersectionTypeENS_8LazyTypeENS_11UnknownTypeENS_9NeverTypeENS_12NegationTypeENS_12NoRefineTypeENS_24TypeFunctionInstanceTypeEEEEPKT_PKNS_7VariantIJDpT0_EEE(ptr noundef %0) #3 comdat {
  %2 = alloca ptr, align 8
  store ptr %0, ptr %2, align 8, !tbaa !337
  %3 = load ptr, ptr %2, align 8, !tbaa !337
  %4 = icmp ne ptr %3, null
  br i1 %4, label %5, label %8

5:                                                ; preds = %1
  %6 = load ptr, ptr %2, align 8, !tbaa !337
  %7 = call noundef ptr @_ZNK4Luau7VariantIJNS_9Unifiable5BoundIPKNS_4TypeEEENS1_5ErrorIS5_EENS_8FreeTypeENS_11GenericTypeENS_13PrimitiveTypeENS_13SingletonTypeENS_11BlockedTypeENS_20PendingExpansionTypeENS_12FunctionTypeENS_9TableTypeENS_13MetatableTypeENS_9ClassTypeENS_7AnyTypeENS_9UnionTypeENS_16IntersectionTypeENS_8LazyTypeENS_11UnknownTypeENS_9NeverTypeENS_12NegationTypeENS_12NoRefineTypeENS_24TypeFunctionInstanceTypeEEE6get_ifISH_EEPKT_v(ptr noundef nonnull align 8 dereferenceable(344) %6)
  br label %9

8:                                                ; preds = %1
  br label %9

9:                                                ; preds = %8, %5
  %10 = phi ptr [ %7, %5 ], [ null, %8 ]
  ret ptr %10
}

; Function Attrs: mustprogress uwtable
define linkonce_odr dso_local noundef ptr @_ZN4Luau3getINS_9TableTypeEEEPKT_PKNS_4TypeE(ptr noundef %0) #3 comdat {
  %2 = alloca ptr, align 8
  store ptr %0, ptr %2, align 8, !tbaa !29
  %3 = load ptr, ptr %2, align 8, !tbaa !29
  %4 = getelementptr inbounds nuw %"struct.Luau::Type", ptr %3, i32 0, i32 0
  %5 = call noundef ptr @_ZN4Luau6get_ifINS_9TableTypeEJNS_9Unifiable5BoundIPKNS_4TypeEEENS2_5ErrorIS6_EENS_8FreeTypeENS_11GenericTypeENS_13PrimitiveTypeENS_13SingletonTypeENS_11BlockedTypeENS_20PendingExpansionTypeENS_12FunctionTypeES1_NS_13MetatableTypeENS_9ClassTypeENS_7AnyTypeENS_9UnionTypeENS_16IntersectionTypeENS_8LazyTypeENS_11UnknownTypeENS_9NeverTypeENS_12NegationTypeENS_12NoRefineTypeENS_24TypeFunctionInstanceTypeEEEEPKT_PKNS_7VariantIJDpT0_EEE(ptr noundef %4)
  ret ptr %5
}

; Function Attrs: mustprogress nounwind uwtable
define linkonce_odr dso_local noundef nonnull align 8 dereferenceable(32) ptr @_ZNKRSt8optionalINSt7__cxx1112basic_stringIcSt11char_traitsIcESaIcEEEEdeEv(ptr noundef nonnull align 8 dereferenceable(40) %0) #2 comdat align 2 {
  %2 = alloca ptr, align 8
  store ptr %0, ptr %2, align 8, !tbaa !140
  %3 = load ptr, ptr %2, align 8
  %4 = call noundef nonnull align 8 dereferenceable(32) ptr @_ZNKSt19_Optional_base_implINSt7__cxx1112basic_stringIcSt11char_traitsIcESaIcEEESt14_Optional_baseIS5_Lb0ELb0EEE6_M_getEv(ptr noundef nonnull align 1 dereferenceable(1) %3) #20
  ret ptr %4
}

; Function Attrs: mustprogress nounwind uwtable
define linkonce_odr dso_local noundef zeroext i1 @_ZNKSt8optionalINSt7__cxx1112basic_stringIcSt11char_traitsIcESaIcEEEEcvbEv(ptr noundef nonnull align 8 dereferenceable(40) %0) #2 comdat align 2 {
  %2 = alloca ptr, align 8
  store ptr %0, ptr %2, align 8, !tbaa !140
  %3 = load ptr, ptr %2, align 8
  %4 = call noundef zeroext i1 @_ZNKSt19_Optional_base_implINSt7__cxx1112basic_stringIcSt11char_traitsIcESaIcEEESt14_Optional_baseIS5_Lb0ELb0EEE13_M_is_engagedEv(ptr noundef nonnull align 1 dereferenceable(1) %3) #20
  ret i1 %4
}

; Function Attrs: mustprogress uwtable
define linkonce_odr dso_local noundef ptr @_ZN4Luau3getINS_13MetatableTypeEEEPKT_PKNS_4TypeE(ptr noundef %0) #3 comdat {
  %2 = alloca ptr, align 8
  store ptr %0, ptr %2, align 8, !tbaa !29
  %3 = load ptr, ptr %2, align 8, !tbaa !29
  %4 = getelementptr inbounds nuw %"struct.Luau::Type", ptr %3, i32 0, i32 0
  %5 = call noundef ptr @_ZN4Luau6get_ifINS_13MetatableTypeEJNS_9Unifiable5BoundIPKNS_4TypeEEENS2_5ErrorIS6_EENS_8FreeTypeENS_11GenericTypeENS_13PrimitiveTypeENS_13SingletonTypeENS_11BlockedTypeENS_20PendingExpansionTypeENS_12FunctionTypeENS_9TableTypeES1_NS_9ClassTypeENS_7AnyTypeENS_9UnionTypeENS_16IntersectionTypeENS_8LazyTypeENS_11UnknownTypeENS_9NeverTypeENS_12NegationTypeENS_12NoRefineTypeENS_24TypeFunctionInstanceTypeEEEEPKT_PKNS_7VariantIJDpT0_EEE(ptr noundef %4)
  ret ptr %5
}

; Function Attrs: mustprogress uwtable
define dso_local noundef ptr @_ZN4Luau6followEPKNS_4TypeE(ptr noundef %0) #3 {
  %2 = alloca ptr, align 8
  store ptr %0, ptr %2, align 8, !tbaa !29
  %3 = load ptr, ptr %2, align 8, !tbaa !29
  %4 = call noundef ptr @_ZN4Luau6followEPKNS_4TypeENS_12FollowOptionE(ptr noundef %3, i32 noundef 0)
  ret ptr %4
}

; Function Attrs: mustprogress uwtable
define dso_local noundef ptr @_ZN4Luau7getNameB5cxx11EPKNS_4TypeE(ptr noundef %0) #3 {
  %2 = alloca ptr, align 8
  %3 = alloca ptr, align 8
  %4 = alloca ptr, align 8
  %5 = alloca i32, align 4
  %6 = alloca ptr, align 8
  store ptr %0, ptr %3, align 8, !tbaa !29
  %7 = load ptr, ptr %3, align 8, !tbaa !29
  %8 = call noundef ptr @_ZN4Luau6followEPKNS_4TypeE(ptr noundef %7)
  store ptr %8, ptr %3, align 8, !tbaa !29
  call void @llvm.lifetime.start.p0(i64 8, ptr %4) #20
  %9 = load ptr, ptr %3, align 8, !tbaa !29
  %10 = call noundef ptr @_ZN4Luau3getINS_13MetatableTypeEEEPKT_PKNS_4TypeE(ptr noundef %9)
  store ptr %10, ptr %4, align 8, !tbaa !114
  %11 = load ptr, ptr %4, align 8, !tbaa !114
  %12 = icmp ne ptr %11, null
  br i1 %12, label %13, label %26

13:                                               ; preds = %1
  %14 = load ptr, ptr %4, align 8, !tbaa !114
  %15 = getelementptr inbounds nuw %"struct.Luau::MetatableType", ptr %14, i32 0, i32 2
  %16 = call noundef zeroext i1 @_ZNKSt8optionalINSt7__cxx1112basic_stringIcSt11char_traitsIcESaIcEEEEcvbEv(ptr noundef nonnull align 8 dereferenceable(40) %15) #20
  br i1 %16, label %17, label %21

17:                                               ; preds = %13
  %18 = load ptr, ptr %4, align 8, !tbaa !114
  %19 = getelementptr inbounds nuw %"struct.Luau::MetatableType", ptr %18, i32 0, i32 2
  %20 = call noundef nonnull align 8 dereferenceable(32) ptr @_ZNKRSt8optionalINSt7__cxx1112basic_stringIcSt11char_traitsIcESaIcEEEEdeEv(ptr noundef nonnull align 8 dereferenceable(40) %19) #20
  store ptr %20, ptr %2, align 8
  store i32 1, ptr %5, align 4
  br label %27

21:                                               ; preds = %13
  %22 = load ptr, ptr %4, align 8, !tbaa !114
  %23 = getelementptr inbounds nuw %"struct.Luau::MetatableType", ptr %22, i32 0, i32 0
  %24 = load ptr, ptr %23, align 8, !tbaa !116
  %25 = call noundef ptr @_ZN4Luau6followEPKNS_4TypeE(ptr noundef %24)
  store ptr %25, ptr %3, align 8, !tbaa !29
  br label %26

26:                                               ; preds = %21, %1
  store i32 0, ptr %5, align 4
  br label %27

27:                                               ; preds = %26, %17
  call void @llvm.lifetime.end.p0(i64 8, ptr %4) #20
  %28 = load i32, ptr %5, align 4
  switch i32 %28, label %57 [
    i32 0, label %29
    i32 1, label %55
  ]

29:                                               ; preds = %27
  call void @llvm.lifetime.start.p0(i64 8, ptr %6) #20
  %30 = load ptr, ptr %3, align 8, !tbaa !29
  %31 = call noundef ptr @_ZN4Luau3getINS_9TableTypeEEEPKT_PKNS_4TypeE(ptr noundef %30)
  store ptr %31, ptr %6, align 8, !tbaa !42
  %32 = load ptr, ptr %6, align 8, !tbaa !42
  %33 = icmp ne ptr %32, null
  br i1 %33, label %34, label %51

34:                                               ; preds = %29
  %35 = load ptr, ptr %6, align 8, !tbaa !42
  %36 = getelementptr inbounds nuw %"struct.Luau::TableType", ptr %35, i32 0, i32 5
  %37 = call noundef zeroext i1 @_ZNKSt8optionalINSt7__cxx1112basic_stringIcSt11char_traitsIcESaIcEEEEcvbEv(ptr noundef nonnull align 8 dereferenceable(40) %36) #20
  br i1 %37, label %38, label %42

38:                                               ; preds = %34
  %39 = load ptr, ptr %6, align 8, !tbaa !42
  %40 = getelementptr inbounds nuw %"struct.Luau::TableType", ptr %39, i32 0, i32 5
  %41 = call noundef nonnull align 8 dereferenceable(32) ptr @_ZNKRSt8optionalINSt7__cxx1112basic_stringIcSt11char_traitsIcESaIcEEEEdeEv(ptr noundef nonnull align 8 dereferenceable(40) %40) #20
  store ptr %41, ptr %2, align 8
  store i32 1, ptr %5, align 4
  br label %52

42:                                               ; preds = %34
  %43 = load ptr, ptr %6, align 8, !tbaa !42
  %44 = getelementptr inbounds nuw %"struct.Luau::TableType", ptr %43, i32 0, i32 6
  %45 = call noundef zeroext i1 @_ZNKSt8optionalINSt7__cxx1112basic_stringIcSt11char_traitsIcESaIcEEEEcvbEv(ptr noundef nonnull align 8 dereferenceable(40) %44) #20
  br i1 %45, label %46, label %50

46:                                               ; preds = %42
  %47 = load ptr, ptr %6, align 8, !tbaa !42
  %48 = getelementptr inbounds nuw %"struct.Luau::TableType", ptr %47, i32 0, i32 6
  %49 = call noundef nonnull align 8 dereferenceable(32) ptr @_ZNKRSt8optionalINSt7__cxx1112basic_stringIcSt11char_traitsIcESaIcEEEEdeEv(ptr noundef nonnull align 8 dereferenceable(40) %48) #20
  store ptr %49, ptr %2, align 8
  store i32 1, ptr %5, align 4
  br label %52

50:                                               ; preds = %42
  br label %51

51:                                               ; preds = %50, %29
  store i32 0, ptr %5, align 4
  br label %52

52:                                               ; preds = %51, %46, %38
  call void @llvm.lifetime.end.p0(i64 8, ptr %6) #20
  %53 = load i32, ptr %5, align 4
  switch i32 %53, label %57 [
    i32 0, label %54
    i32 1, label %55
  ]

54:                                               ; preds = %52
  store ptr null, ptr %2, align 8
  br label %55

55:                                               ; preds = %54, %52, %27
  %56 = load ptr, ptr %2, align 8
  ret ptr %56

57:                                               ; preds = %52, %27
  unreachable
}