; Function Attrs: mustprogress uwtable
define dso_local noundef ptr @_ZN4Luau7getNameB5cxx11EPKNS_4TypeE(ptr noundef %0) local_unnamed_addr #2 {
  %2 = tail call noundef ptr @_ZN4Luau6followEPKNS_4TypeENS_12FollowOptionE(ptr noundef %0, i32 noundef 0)
  %.not.i.i = icmp eq ptr %2, null
  br i1 %.not.i.i, label %_ZN4Luau3getINS_9TableTypeEEEPKT_PKNS_4TypeE.exit.thread, label %3

3:                                                ; preds = %1
  %4 = load i32, ptr %2, align 8, !tbaa !8
  %5 = icmp eq i32 %4, 10
  %6 = getelementptr inbounds nuw i8, ptr %2, i64 8
  br i1 %5, label %_ZN4Luau3getINS_13MetatableTypeEEEPKT_PKNS_4TypeE.exit, label %_ZN4Luau3getINS_13MetatableTypeEEEPKT_PKNS_4TypeE.exit.thread.thread40

_ZN4Luau3getINS_13MetatableTypeEEEPKT_PKNS_4TypeE.exit: ; preds = %3
  %7 = getelementptr inbounds nuw i8, ptr %2, i64 24
  %8 = getelementptr inbounds nuw i8, ptr %2, i64 56
  %9 = load i8, ptr %8, align 8, !tbaa !24, !range !119, !noundef !118
  %10 = trunc nuw i8 %9 to i1
  br i1 %10, label %_ZN4Luau3getINS_9TableTypeEEEPKT_PKNS_4TypeE.exit.thread, label %_ZN4Luau3getINS_13MetatableTypeEEEPKT_PKNS_4TypeE.exit.thread

_ZN4Luau3getINS_13MetatableTypeEEEPKT_PKNS_4TypeE.exit.thread: ; preds = %_ZN4Luau3getINS_13MetatableTypeEEEPKT_PKNS_4TypeE.exit
  %11 = load ptr, ptr %6, align 8, !tbaa !97
  %12 = tail call noundef ptr @_ZN4Luau6followEPKNS_4TypeENS_12FollowOptionE(ptr noundef %11, i32 noundef 0)
  %.not.i.i23 = icmp eq ptr %12, null
  br i1 %.not.i.i23, label %_ZN4Luau3getINS_9TableTypeEEEPKT_PKNS_4TypeE.exit.thread, label %thread-pre-split

thread-pre-split:                                 ; preds = %_ZN4Luau3getINS_13MetatableTypeEEEPKT_PKNS_4TypeE.exit.thread
  %.pr = load i32, ptr %12, align 8, !tbaa !8
  br label %_ZN4Luau3getINS_13MetatableTypeEEEPKT_PKNS_4TypeE.exit.thread.thread40

_ZN4Luau3getINS_13MetatableTypeEEEPKT_PKNS_4TypeE.exit.thread.thread40: ; preds = %3, %thread-pre-split
  %13 = phi i32 [ %.pr, %thread-pre-split ], [ %4, %3 ]
  %.117.ph43 = phi ptr [ %12, %thread-pre-split ], [ %2, %3 ]
  %14 = icmp eq i32 %13, 9
  br i1 %14, label %_ZN4Luau3getINS_9TableTypeEEEPKT_PKNS_4TypeE.exit, label %_ZN4Luau3getINS_9TableTypeEEEPKT_PKNS_4TypeE.exit.thread

_ZN4Luau3getINS_9TableTypeEEEPKT_PKNS_4TypeE.exit: ; preds = %_ZN4Luau3getINS_13MetatableTypeEEEPKT_PKNS_4TypeE.exit.thread.thread40
  %15 = getelementptr inbounds nuw i8, ptr %.117.ph43, i64 104
  %16 = getelementptr inbounds nuw i8, ptr %.117.ph43, i64 136
  %17 = load i8, ptr %16, align 8, !tbaa !24, !range !119, !noundef !118
  %18 = trunc nuw i8 %17 to i1
  br i1 %18, label %_ZN4Luau3getINS_9TableTypeEEEPKT_PKNS_4TypeE.exit.thread, label %19

19:                                               ; preds = %_ZN4Luau3getINS_9TableTypeEEEPKT_PKNS_4TypeE.exit
  %20 = getelementptr inbounds nuw i8, ptr %.117.ph43, i64 144
  %21 = getelementptr inbounds nuw i8, ptr %.117.ph43, i64 176
  %22 = load i8, ptr %21, align 8, !tbaa !24, !range !119, !noundef !118
  %23 = trunc nuw i8 %22 to i1
  %spec.select = select i1 %23, ptr %20, ptr null
  br label %_ZN4Luau3getINS_9TableTypeEEEPKT_PKNS_4TypeE.exit.thread

_ZN4Luau3getINS_9TableTypeEEEPKT_PKNS_4TypeE.exit.thread: ; preds = %19, %1, %_ZN4Luau3getINS_13MetatableTypeEEEPKT_PKNS_4TypeE.exit.thread, %_ZN4Luau3getINS_13MetatableTypeEEEPKT_PKNS_4TypeE.exit.thread.thread40, %_ZN4Luau3getINS_9TableTypeEEEPKT_PKNS_4TypeE.exit, %_ZN4Luau3getINS_13MetatableTypeEEEPKT_PKNS_4TypeE.exit
  %.1 = phi ptr [ %7, %_ZN4Luau3getINS_13MetatableTypeEEEPKT_PKNS_4TypeE.exit ], [ %15, %_ZN4Luau3getINS_9TableTypeEEEPKT_PKNS_4TypeE.exit ], [ null, %_ZN4Luau3getINS_13MetatableTypeEEEPKT_PKNS_4TypeE.exit.thread.thread40 ], [ null, %_ZN4Luau3getINS_13MetatableTypeEEEPKT_PKNS_4TypeE.exit.thread ], [ null, %1 ], [ %spec.select, %19 ]
  ret ptr %.1
}